target datalayout = "e-m:e-p270:32:32-p271:32:32-p272:64:64-i64:64-i128:128-f80:128-n8:16:32:64-S128"
target triple = "x86_64-pc-linux-gnu"

%"class.llvm::ImmutableMap" = type { %"class.llvm::IntrusiveRefCntPtr.135" }
%"class.llvm::IntrusiveRefCntPtr.135" = type { ptr }
%"struct.std::pair.140" = type { ptr, %"class.(anonymous namespace)::NullabilityState" }
%"class.(anonymous namespace)::NullabilityState" = type { i8, ptr }
%"class.llvm::ImutAVLTree" = type { ptr, ptr, ptr, ptr, ptr, i32, %"struct.std::pair.140", i32, i32 }

@_ZZN5clang4ento17ProgramStateTraitIN12_GLOBAL__N_114NullabilityMapEE8GDMIndexEvE5Index = internal global i32 0, align 4

; Function Attrs: mustprogress nounwind uwtable
define internal void @_ZN4llvm11ImutAVLTreeINS_16ImutKeyValueInfoIPKN5clang4ento9MemRegionEN12_GLOBAL__N_116NullabilityStateEEEE6retainEv(ptr noundef nonnull align 8 dereferenceable(80) %0) #0 align 2 {
  %2 = alloca ptr, align 8
  store ptr %0, ptr %2, align 8
  %3 = load ptr, ptr %2, align 8
  %4 = getelementptr inbounds nuw %"class.llvm::ImutAVLTree", ptr %3, i32 0, i32 8
  %5 = load i32, ptr %4, align 4
  %6 = add i32 %5, 1
  store i32 %6, ptr %4, align 4
  ret void
}

; Function Attrs: mustprogress nounwind uwtable
define internal void @_ZN4llvm11ImutAVLTreeINS_16ImutKeyValueInfoIPKN5clang4ento9MemRegionEN12_GLOBAL__N_116NullabilityStateEEEE7releaseEv(ptr noundef nonnull align 8 dereferenceable(80) %0) #0 align 2 {
  %2 = alloca ptr, align 8
  store ptr %0, ptr %2, align 8
  %3 = load ptr, ptr %2, align 8
  %4 = getelementptr inbounds nuw %"class.llvm::ImutAVLTree", ptr %3, i32 0, i32 8
  %5 = load i32, ptr %4, align 4
  %6 = add i32 %5, -1
  store i32 %6, ptr %4, align 4
  %7 = icmp eq i32 %6, 0
  br i1 %7, label %8, label %9

8:                                                ; preds = %1
  call void @_ZN4llvm11ImutAVLTreeINS_16ImutKeyValueInfoIPKN5clang4ento9MemRegionEN12_GLOBAL__N_116NullabilityStateEEEE7destroyEv(ptr noundef nonnull align 8 dereferenceable(80) %3)
  br label %9

9:                                                ; preds = %8, %1
  ret void
}

; Function Attrs: mustprogress nounwind uwtable
define linkonce_odr hidden noundef zeroext i1 @_ZN4llvm17ImutContainerInfoIPKN5clang4ento9MemRegionEE6isLessES5_S5_(ptr noundef %0, ptr noundef %1) #0 comdat align 2 {
  %3 = alloca ptr, align 8
  %4 = alloca ptr, align 8
  store ptr %0, ptr %3, align 8
  store ptr %1, ptr %4, align 8
  %5 = load ptr, ptr %3, align 8
  %6 = load ptr, ptr %4, align 8
  %7 = icmp ult ptr %5, %6
  ret i1 %7
}

; Function Attrs: mustprogress nounwind uwtable
define linkonce_odr hidden noundef zeroext i1 @_ZN4llvm17ImutContainerInfoIPKN5clang4ento9MemRegionEE7isEqualES5_S5_(ptr noundef %0, ptr noundef %1) #0 comdat align 2 {
  %3 = alloca ptr, align 8
  %4 = alloca ptr, align 8
  store ptr %0, ptr %3, align 8
  store ptr %1, ptr %4, align 8
  %5 = load ptr, ptr %3, align 8
  %6 = load ptr, ptr %4, align 8
  %7 = icmp eq ptr %5, %6
  ret i1 %7
}

; Function Attrs: mustprogress nounwind uwtable
define internal void @_ZN4llvm22IntrusiveRefCntPtrInfoINS_11ImutAVLTreeINS_16ImutKeyValueInfoIPKN5clang4ento9MemRegionEN12_GLOBAL__N_116NullabilityStateEEEEEE6retainEPSB_(ptr noundef %0) #0 align 2 {
  %2 = alloca ptr, align 8
  store ptr %0, ptr %2, align 8
  %3 = load ptr, ptr %2, align 8
  call void @_ZN4llvm11ImutAVLTreeINS_16ImutKeyValueInfoIPKN5clang4ento9MemRegionEN12_GLOBAL__N_116NullabilityStateEEEE6retainEv(ptr noundef nonnull align 8 dereferenceable(80) %3)
  ret void
}

; Function Attrs: mustprogress nounwind uwtable
define internal void @_ZN4llvm22IntrusiveRefCntPtrInfoINS_11ImutAVLTreeINS_16ImutKeyValueInfoIPKN5clang4ento9MemRegionEN12_GLOBAL__N_116NullabilityStateEEEEEE7releaseEPSB_(ptr noundef %0) #0 align 2 {
  %2 = alloca ptr, align 8
  store ptr %0, ptr %2, align 8
  %3 = load ptr, ptr %2, align 8
  call void @_ZN4llvm11ImutAVLTreeINS_16ImutKeyValueInfoIPKN5clang4ento9MemRegionEN12_GLOBAL__N_116NullabilityStateEEEE7releaseEv(ptr noundef nonnull align 8 dereferenceable(80) %3)
  ret void
}

; Function Attrs: mustprogress nounwind uwtable
define internal noundef ptr @_ZNK4llvm11ImutAVLTreeINS_16ImutKeyValueInfoIPKN5clang4ento9MemRegionEN12_GLOBAL__N_116NullabilityStateEEEE8getRightEv(ptr noundef nonnull align 8 dereferenceable(80) %0) #0 align 2 {
  %2 = alloca ptr, align 8
  store ptr %0, ptr %2, align 8
  %3 = load ptr, ptr %2, align 8
  %4 = getelementptr inbounds nuw %"class.llvm::ImutAVLTree", ptr %3, i32 0, i32 2
  %5 = load ptr, ptr %4, align 8
  ret ptr %5
}

; Function Attrs: mustprogress nounwind uwtable
define internal noundef ptr @_ZNK4llvm11ImutAVLTreeINS_16ImutKeyValueInfoIPKN5clang4ento9MemRegionEN12_GLOBAL__N_116NullabilityStateEEEE7getLeftEv(ptr noundef nonnull align 8 dereferenceable(80) %0) #0 align 2 {
  %2 = alloca ptr, align 8
  store ptr %0, ptr %2, align 8
  %3 = load ptr, ptr %2, align 8
  %4 = getelementptr inbounds nuw %"class.llvm::ImutAVLTree", ptr %3, i32 0, i32 1
  %5 = load ptr, ptr %4, align 8
  ret ptr %5
}

; Function Attrs: mustprogress nounwind uwtable
define internal noundef zeroext i1 @_ZN4llvm16ImutKeyValueInfoIPKN5clang4ento9MemRegionEN12_GLOBAL__N_116NullabilityStateEE6isLessERKS5_SA_(ptr noundef nonnull align 8 dereferenceable(8) %0, ptr noundef nonnull align 8 dereferenceable(8) %1) #0 align 2 {
  %3 = alloca ptr, align 8
  %4 = alloca ptr, align 8
  store ptr %0, ptr %3, align 8
  store ptr %1, ptr %4, align 8
  %5 = load ptr, ptr %3, align 8
  %6 = load ptr, ptr %5, align 8
  %7 = load ptr, ptr %4, align 8
  %8 = load ptr, ptr %7, align 8
  %9 = call noundef zeroext i1 @_ZN4llvm17ImutContainerInfoIPKN5clang4ento9MemRegionEE6isLessES5_S5_(ptr noundef %6, ptr noundef %8)
  ret i1 %9
}

; Function Attrs: mustprogress nounwind uwtable
define internal noundef zeroext i1 @_ZN4llvm16ImutKeyValueInfoIPKN5clang4ento9MemRegionEN12_GLOBAL__N_116NullabilityStateEE7isEqualERKS5_SA_(ptr noundef nonnull align 8 dereferenceable(8) %0, ptr noundef nonnull align 8 dereferenceable(8) %1) #0 align 2 {
  %3 = alloca ptr, align 8
  %4 = alloca ptr, align 8
  store ptr %0, ptr %3, align 8
  store ptr %1, ptr %4, align 8
  %5 = load ptr, ptr %3, align 8
  %6 = load ptr, ptr %5, align 8
  %7 = load ptr, ptr %4, align 8
  %8 = load ptr, ptr %7, align 8
  %9 = call noundef zeroext i1 @_ZN4llvm17ImutContainerInfoIPKN5clang4ento9MemRegionEE7isEqualES5_S5_(ptr noundef %6, ptr noundef %8)
  ret i1 %9
}

; Function Attrs: mustprogress nounwind uwtable
define internal noundef nonnull align 8 dereferenceable(8) ptr @_ZN4llvm16ImutKeyValueInfoIPKN5clang4ento9MemRegionEN12_GLOBAL__N_116NullabilityStateEE10KeyOfValueERKSt4pairIS5_S7_E(ptr noundef nonnull align 8 dereferenceable(24) %0) #0 align 2 {
  %2 = alloca ptr, align 8
  store ptr %0, ptr %2, align 8
  %3 = load ptr, ptr %2, align 8
  %4 = getelementptr inbounds nuw %"struct.std::pair.140", ptr %3, i32 0, i32 0
  ret ptr %4
}

; Function Attrs: mustprogress nounwind uwtable
define internal void @_ZN4llvm18IntrusiveRefCntPtrINS_11ImutAVLTreeINS_16ImutKeyValueInfoIPKN5clang4ento9MemRegionEN12_GLOBAL__N_116NullabilityStateEEEEEE6retainEv(ptr noundef nonnull align 8 dereferenceable(8) %0) #0 align 2 {
  %2 = alloca ptr, align 8
  store ptr %0, ptr %2, align 8
  %3 = load ptr, ptr %2, align 8
  %4 = getelementptr inbounds nuw %"class.llvm::IntrusiveRefCntPtr.135", ptr %3, i32 0, i32 0
  %5 = load ptr, ptr %4, align 8
  %6 = icmp ne ptr %5, null
  br i1 %6, label %7, label %10

7:                                                ; preds = %1
  %8 = getelementptr inbounds nuw %"class.llvm::IntrusiveRefCntPtr.135", ptr %3, i32 0, i32 0
  %9 = load ptr, ptr %8, align 8
  call void @_ZN4llvm22IntrusiveRefCntPtrInfoINS_11ImutAVLTreeINS_16ImutKeyValueInfoIPKN5clang4ento9MemRegionEN12_GLOBAL__N_116NullabilityStateEEEEEE6retainEPSB_(ptr noundef %9)
  br label %10

10:                                               ; preds = %7, %1
  ret void
}

; Function Attrs: mustprogress nounwind uwtable
define internal void @_ZN4llvm18IntrusiveRefCntPtrINS_11ImutAVLTreeINS_16ImutKeyValueInfoIPKN5clang4ento9MemRegionEN12_GLOBAL__N_116NullabilityStateEEEEEE7releaseEv(ptr noundef nonnull align 8 dereferenceable(8) %0) #0 align 2 {
  %2 = alloca ptr, align 8
  store ptr %0, ptr %2, align 8
  %3 = load ptr, ptr %2, align 8
  %4 = getelementptr inbounds nuw %"class.llvm::IntrusiveRefCntPtr.135", ptr %3, i32 0, i32 0
  %5 = load ptr, ptr %4, align 8
  %6 = icmp ne ptr %5, null
  br i1 %6, label %7, label %10

7:                                                ; preds = %1
  %8 = getelementptr inbounds nuw %"class.llvm::IntrusiveRefCntPtr.135", ptr %3, i32 0, i32 0
  %9 = load ptr, ptr %8, align 8
  call void @_ZN4llvm22IntrusiveRefCntPtrInfoINS_11ImutAVLTreeINS_16ImutKeyValueInfoIPKN5clang4ento9MemRegionEN12_GLOBAL__N_116NullabilityStateEEEEEE7releaseEPSB_(ptr noundef %9)
  br label %10

10:                                               ; preds = %7, %1
  ret void
}

; Function Attrs: mustprogress nounwind uwtable
define internal noundef nonnull align 8 dereferenceable(24) ptr @_ZNK4llvm11ImutAVLTreeINS_16ImutKeyValueInfoIPKN5clang4ento9MemRegionEN12_GLOBAL__N_116NullabilityStateEEEE8getValueEv(ptr noundef nonnull align 8 dereferenceable(80) %0) #0 align 2 {
  %2 = alloca ptr, align 8
  store ptr %0, ptr %2, align 8
  %3 = load ptr, ptr %2, align 8
  %4 = getelementptr inbounds nuw %"class.llvm::ImutAVLTree", ptr %3, i32 0, i32 6
  ret ptr %4
}

; Function Attrs: mustprogress nounwind uwtable
define internal noundef ptr @_ZN4llvm11ImutAVLTreeINS_16ImutKeyValueInfoIPKN5clang4ento9MemRegionEN12_GLOBAL__N_116NullabilityStateEEEE4findERKS6_(ptr noundef nonnull align 8 dereferenceable(80) %0, ptr noundef nonnull align 8 dereferenceable(8) %1) #0 align 2 {
  %3 = alloca ptr, align 8
  %4 = alloca ptr, align 8
  %5 = alloca ptr, align 8
  %6 = alloca ptr, align 8
  %7 = alloca ptr, align 8
  store ptr %0, ptr %4, align 8
  store ptr %1, ptr %5, align 8
  %8 = load ptr, ptr %4, align 8
  store ptr %8, ptr %6, align 8
  br label %9

9:                                                ; preds = %32, %2
  %10 = load ptr, ptr %6, align 8
  %11 = icmp ne ptr %10, null
  br i1 %11, label %12, label %33

12:                                               ; preds = %9
  %13 = load ptr, ptr %6, align 8
  %14 = call noundef nonnull align 8 dereferenceable(24) ptr @_ZNK4llvm11ImutAVLTreeINS_16ImutKeyValueInfoIPKN5clang4ento9MemRegionEN12_GLOBAL__N_116NullabilityStateEEEE8getValueEv(ptr noundef nonnull align 8 dereferenceable(80) %13)
  %15 = call noundef nonnull align 8 dereferenceable(8) ptr @_ZN4llvm16ImutKeyValueInfoIPKN5clang4ento9MemRegionEN12_GLOBAL__N_116NullabilityStateEE10KeyOfValueERKSt4pairIS5_S7_E(ptr noundef nonnull align 8 dereferenceable(24) %14)
  store ptr %15, ptr %7, align 8
  %16 = load ptr, ptr %5, align 8
  %17 = load ptr, ptr %7, align 8
  %18 = call noundef zeroext i1 @_ZN4llvm16ImutKeyValueInfoIPKN5clang4ento9MemRegionEN12_GLOBAL__N_116NullabilityStateEE7isEqualERKS5_SA_(ptr noundef nonnull align 8 dereferenceable(8) %16, ptr noundef nonnull align 8 dereferenceable(8) %17)
  br i1 %18, label %19, label %21

19:                                               ; preds = %12
  %20 = load ptr, ptr %6, align 8
  store ptr %20, ptr %3, align 8
  br label %34

21:                                               ; preds = %12
  %22 = load ptr, ptr %5, align 8
  %23 = load ptr, ptr %7, align 8
  %24 = call noundef zeroext i1 @_ZN4llvm16ImutKeyValueInfoIPKN5clang4ento9MemRegionEN12_GLOBAL__N_116NullabilityStateEE6isLessERKS5_SA_(ptr noundef nonnull align 8 dereferenceable(8) %22, ptr noundef nonnull align 8 dereferenceable(8) %23)
  br i1 %24, label %25, label %28

25:                                               ; preds = %21
  %26 = load ptr, ptr %6, align 8
  %27 = call noundef ptr @_ZNK4llvm11ImutAVLTreeINS_16ImutKeyValueInfoIPKN5clang4ento9MemRegionEN12_GLOBAL__N_116NullabilityStateEEEE7getLeftEv(ptr noundef nonnull align 8 dereferenceable(80) %26)
  store ptr %27, ptr %6, align 8
  br label %31

28:                                               ; preds = %21
  %29 = load ptr, ptr %6, align 8
  %30 = call noundef ptr @_ZNK4llvm11ImutAVLTreeINS_16ImutKeyValueInfoIPKN5clang4ento9MemRegionEN12_GLOBAL__N_116NullabilityStateEEEE8getRightEv(ptr noundef nonnull align 8 dereferenceable(80) %29)
  store ptr %30, ptr %6, align 8
  br label %31

31:                                               ; preds = %28, %25
  br label %32

32:                                               ; preds = %31
  br label %9, !llvm.loop !19

33:                                               ; preds = %9
  store ptr null, ptr %3, align 8
  br label %34

34:                                               ; preds = %33, %19
  %35 = load ptr, ptr %3, align 8
  ret ptr %35
}

; Function Attrs: mustprogress nounwind uwtable
define internal noundef ptr @_ZNK4llvm18IntrusiveRefCntPtrINS_11ImutAVLTreeINS_16ImutKeyValueInfoIPKN5clang4ento9MemRegionEN12_GLOBAL__N_116NullabilityStateEEEEEEptEv(ptr noundef nonnull align 8 dereferenceable(8) %0) #0 align 2 {
  %2 = alloca ptr, align 8
  store ptr %0, ptr %2, align 8
  %3 = load ptr, ptr %2, align 8
  %4 = getelementptr inbounds nuw %"class.llvm::IntrusiveRefCntPtr.135", ptr %3, i32 0, i32 0
  %5 = load ptr, ptr %4, align 8
  ret ptr %5
}

; Function Attrs: mustprogress nounwind uwtable
define internal noundef zeroext i1 @_ZNK4llvm18IntrusiveRefCntPtrINS_11ImutAVLTreeINS_16ImutKeyValueInfoIPKN5clang4ento9MemRegionEN12_GLOBAL__N_116NullabilityStateEEEEEEcvbEv(ptr noundef nonnull align 8 dereferenceable(8) %0) #0 align 2 {
  %2 = alloca ptr, align 8
  store ptr %0, ptr %2, align 8
  %3 = load ptr, ptr %2, align 8
  %4 = getelementptr inbounds nuw %"class.llvm::IntrusiveRefCntPtr.135", ptr %3, i32 0, i32 0
  %5 = load ptr, ptr %4, align 8
  %6 = icmp ne ptr %5, null
  ret i1 %6
}

; Function Attrs: mustprogress nounwind uwtable
define internal void @_ZN4llvm18IntrusiveRefCntPtrINS_11ImutAVLTreeINS_16ImutKeyValueInfoIPKN5clang4ento9MemRegionEN12_GLOBAL__N_116NullabilityStateEEEEEEC2EPSB_(ptr noundef nonnull align 8 dereferenceable(8) %0, ptr noundef %1) unnamed_addr #0 align 2 {
  %3 = alloca ptr, align 8
  %4 = alloca ptr, align 8
  store ptr %0, ptr %3, align 8
  store ptr %1, ptr %4, align 8
  %5 = load ptr, ptr %3, align 8
  %6 = getelementptr inbounds nuw %"class.llvm::IntrusiveRefCntPtr.135", ptr %5, i32 0, i32 0
  %7 = load ptr, ptr %4, align 8
  store ptr %7, ptr %6, align 8
  call void @_ZN4llvm18IntrusiveRefCntPtrINS_11ImutAVLTreeINS_16ImutKeyValueInfoIPKN5clang4ento9MemRegionEN12_GLOBAL__N_116NullabilityStateEEEEEE6retainEv(ptr noundef nonnull align 8 dereferenceable(8) %5)
  ret void
}

; Function Attrs: mustprogress nounwind uwtable
define internal void @_ZN4llvm18IntrusiveRefCntPtrINS_11ImutAVLTreeINS_16ImutKeyValueInfoIPKN5clang4ento9MemRegionEN12_GLOBAL__N_116NullabilityStateEEEEEED2Ev(ptr noundef nonnull align 8 dereferenceable(8) %0) unnamed_addr #0 align 2 {
  %2 = alloca ptr, align 8
  store ptr %0, ptr %2, align 8
  %3 = load ptr, ptr %2, align 8
  call void @_ZN4llvm18IntrusiveRefCntPtrINS_11ImutAVLTreeINS_16ImutKeyValueInfoIPKN5clang4ento9MemRegionEN12_GLOBAL__N_116NullabilityStateEEEEEE7releaseEv(ptr noundef nonnull align 8 dereferenceable(8) %3)
  ret void
}

; Function Attrs: mustprogress nounwind uwtable
define internal noundef ptr @_ZNK4llvm12ImmutableMapIPKN5clang4ento9MemRegionEN12_GLOBAL__N_116NullabilityStateENS_16ImutKeyValueInfoIS5_S7_EEE6lookupERKS5_(ptr noundef nonnull align 8 dereferenceable(8) %0, ptr noundef nonnull align 8 dereferenceable(8) %1) #0 align 2 {
  %3 = alloca ptr, align 8
  %4 = alloca ptr, align 8
  %5 = alloca ptr, align 8
  %6 = alloca ptr, align 8
  store ptr %0, ptr %4, align 8
  store ptr %1, ptr %5, align 8
  %7 = load ptr, ptr %4, align 8
  %8 = getelementptr inbounds nuw %"class.llvm::ImmutableMap", ptr %7, i32 0, i32 0
  %9 = call noundef zeroext i1 @_ZNK4llvm18IntrusiveRefCntPtrINS_11ImutAVLTreeINS_16ImutKeyValueInfoIPKN5clang4ento9MemRegionEN12_GLOBAL__N_116NullabilityStateEEEEEEcvbEv(ptr noundef nonnull align 8 dereferenceable(8) %8)
  br i1 %9, label %10, label %22

10:                                               ; preds = %2
  %11 = getelementptr inbounds nuw %"class.llvm::ImmutableMap", ptr %7, i32 0, i32 0
  %12 = call noundef ptr @_ZNK4llvm18IntrusiveRefCntPtrINS_11ImutAVLTreeINS_16ImutKeyValueInfoIPKN5clang4ento9MemRegionEN12_GLOBAL__N_116NullabilityStateEEEEEEptEv(ptr noundef nonnull align 8 dereferenceable(8) %11)
  %13 = load ptr, ptr %5, align 8
  %14 = call noundef ptr @_ZN4llvm11ImutAVLTreeINS_16ImutKeyValueInfoIPKN5clang4ento9MemRegionEN12_GLOBAL__N_116NullabilityStateEEEE4findERKS6_(ptr noundef nonnull align 8 dereferenceable(80) %12, ptr noundef nonnull align 8 dereferenceable(8) %13)
  store ptr %14, ptr %6, align 8
  %15 = load ptr, ptr %6, align 8
  %16 = icmp ne ptr %15, null
  br i1 %16, label %17, label %21

17:                                               ; preds = %10
  %18 = load ptr, ptr %6, align 8
  %19 = call noundef nonnull align 8 dereferenceable(24) ptr @_ZNK4llvm11ImutAVLTreeINS_16ImutKeyValueInfoIPKN5clang4ento9MemRegionEN12_GLOBAL__N_116NullabilityStateEEEE8getValueEv(ptr noundef nonnull align 8 dereferenceable(80) %18)
  %20 = getelementptr inbounds nuw %"struct.std::pair.140", ptr %19, i32 0, i32 1
  store ptr %20, ptr %3, align 8
  br label %23

21:                                               ; preds = %10
  br label %22

22:                                               ; preds = %21, %2
  store ptr null, ptr %3, align 8
  br label %23

23:                                               ; preds = %22, %17
  %24 = load ptr, ptr %3, align 8
  ret ptr %24
}

; Function Attrs: mustprogress nounwind uwtable
define internal void @_ZN4llvm12ImmutableMapIPKN5clang4ento9MemRegionEN12_GLOBAL__N_116NullabilityStateENS_16ImutKeyValueInfoIS5_S7_EEEC2EPKNS_11ImutAVLTreeIS9_EE(ptr noundef nonnull align 8 dereferenceable(8) %0, ptr noundef %1) unnamed_addr #0 align 2 {
  %3 = alloca ptr, align 8
  %4 = alloca ptr, align 8
  store ptr %0, ptr %3, align 8
  store ptr %1, ptr %4, align 8
  %5 = load ptr, ptr %3, align 8
  %6 = getelementptr inbounds nuw %"class.llvm::ImmutableMap", ptr %5, i32 0, i32 0
  %7 = load ptr, ptr %4, align 8
  call void @_ZN4llvm18IntrusiveRefCntPtrINS_11ImutAVLTreeINS_16ImutKeyValueInfoIPKN5clang4ento9MemRegionEN12_GLOBAL__N_116NullabilityStateEEEEEEC2EPSB_(ptr noundef nonnull align 8 dereferenceable(8) %6, ptr noundef %7)
  ret void
}

; Function Attrs: mustprogress nounwind uwtable
define internal void @_ZN4llvm12ImmutableMapIPKN5clang4ento9MemRegionEN12_GLOBAL__N_116NullabilityStateENS_16ImutKeyValueInfoIS5_S7_EEED2Ev(ptr noundef nonnull align 8 dereferenceable(8) %0) unnamed_addr #0 align 2 {
  %2 = alloca ptr, align 8
  store ptr %0, ptr %2, align 8
  %3 = load ptr, ptr %2, align 8
  %4 = getelementptr inbounds nuw %"class.llvm::ImmutableMap", ptr %3, i32 0, i32 0
  call void @_ZN4llvm18IntrusiveRefCntPtrINS_11ImutAVLTreeINS_16ImutKeyValueInfoIPKN5clang4ento9MemRegionEN12_GLOBAL__N_116NullabilityStateEEEEEED2Ev(ptr noundef nonnull align 8 dereferenceable(8) %4) #8
  ret void
}

; Function Attrs: mustprogress nounwind uwtable
define internal noundef ptr @_ZN5clang4ento24ProgramStatePartialTraitIN4llvm12ImmutableMapIPKNS0_9MemRegionEN12_GLOBAL__N_116NullabilityStateENS2_16ImutKeyValueInfoIS6_S8_EEEEvE6LookupESB_S6_(ptr noundef %0, ptr noundef %1) #0 align 2 {
  %3 = alloca ptr, align 8
  %4 = alloca ptr, align 8
  store ptr %0, ptr %3, align 8
  store ptr %1, ptr %4, align 8
  %5 = call noundef ptr @_ZNK4llvm12ImmutableMapIPKN5clang4ento9MemRegionEN12_GLOBAL__N_116NullabilityStateENS_16ImutKeyValueInfoIS5_S7_EEE6lookupERKS5_(ptr noundef nonnull align 8 dereferenceable(8) %0, ptr noundef nonnull align 8 dereferenceable(8) %4)
  ret ptr %5
}

; Function Attrs: mustprogress nounwind uwtable
define internal void @_ZN5clang4ento24ProgramStatePartialTraitIN4llvm12ImmutableMapIPKNS0_9MemRegionEN12_GLOBAL__N_116NullabilityStateENS2_16ImutKeyValueInfoIS6_S8_EEEEvE8MakeDataEPKPv(ptr dead_on_unwind noalias writable sret(%"class.llvm::ImmutableMap") align 8 %0, ptr noundef %1) #0 align 2 {
  %3 = alloca ptr, align 8
  %4 = alloca ptr, align 8
  store ptr %0, ptr %3, align 8
  store ptr %1, ptr %4, align 8
  %5 = load ptr, ptr %4, align 8
  %6 = icmp ne ptr %5, null
  br i1 %6, label %7, label %10

7:                                                ; preds = %2
  %8 = load ptr, ptr %4, align 8
  %9 = load ptr, ptr %8, align 8
  call void @_ZN4llvm12ImmutableMapIPKN5clang4ento9MemRegionEN12_GLOBAL__N_116NullabilityStateENS_16ImutKeyValueInfoIS5_S7_EEEC2EPKNS_11ImutAVLTreeIS9_EE(ptr noundef nonnull align 8 dereferenceable(8) %0, ptr noundef %9)
  br label %11

10:                                               ; preds = %2
  call void @_ZN4llvm12ImmutableMapIPKN5clang4ento9MemRegionEN12_GLOBAL__N_116NullabilityStateENS_16ImutKeyValueInfoIS5_S7_EEEC2EPKNS_11ImutAVLTreeIS9_EE(ptr noundef nonnull align 8 dereferenceable(8) %0, ptr noundef null)
  br label %11

11:                                               ; preds = %10, %7
  ret void
}

; Function Attrs: mustprogress nounwind uwtable
define internal noundef ptr @_ZN5clang4ento17ProgramStateTraitIN12_GLOBAL__N_114NullabilityMapEE8GDMIndexEv() #0 align 2 {
  ret ptr @_ZZN5clang4ento17ProgramStateTraitIN12_GLOBAL__N_114NullabilityMapEE8GDMIndexEvE5Index
}

; Function Attrs: mustprogress nounwind uwtable
define internal noundef ptr @_ZNK5clang4ento12ProgramState3getIN12_GLOBAL__N_114NullabilityMapEEENS0_17ProgramStateTraitIT_E11lookup_typeENS7_8key_typeE(ptr noundef nonnull align 8 dereferenceable(48) %0, ptr noundef %1) #0 align 2 {
  %3 = alloca ptr, align 8
  %4 = alloca ptr, align 8
  %5 = alloca ptr, align 8
  %6 = alloca %"class.llvm::ImmutableMap", align 8
  store ptr %0, ptr %3, align 8
  store ptr %1, ptr %4, align 8
  %7 = load ptr, ptr %3, align 8
  %8 = call noundef ptr @_ZN5clang4ento17ProgramStateTraitIN12_GLOBAL__N_114NullabilityMapEE8GDMIndexEv()
  %9 = call noundef ptr @_ZNK5clang4ento12ProgramState7FindGDMEPv(ptr noundef nonnull align 8 dereferenceable(48) %7, ptr noundef %8)
  store ptr %9, ptr %5, align 8
  %10 = load ptr, ptr %5, align 8
  call void @_ZN5clang4ento24ProgramStatePartialTraitIN4llvm12ImmutableMapIPKNS0_9MemRegionEN12_GLOBAL__N_116NullabilityStateENS2_16ImutKeyValueInfoIS6_S8_EEEEvE8MakeDataEPKPv(ptr dead_on_unwind writable sret(%"class.llvm::ImmutableMap") align 8 %6, ptr noundef %10)
  %11 = load ptr, ptr %4, align 8
  %12 = call noundef ptr @_ZN5clang4ento24ProgramStatePartialTraitIN4llvm12ImmutableMapIPKNS0_9MemRegionEN12_GLOBAL__N_116NullabilityStateENS2_16ImutKeyValueInfoIS6_S8_EEEEvE6LookupESB_S6_(ptr noundef %6, ptr noundef %11)
  call void @_ZN4llvm12ImmutableMapIPKN5clang4ento9MemRegionEN12_GLOBAL__N_116NullabilityStateENS_16ImutKeyValueInfoIS5_S7_EEED2Ev(ptr noundef nonnull align 8 dereferenceable(8) %6) #8
  ret ptr %12
}