; Function Attrs: mustprogress nounwind uwtable
define internal fastcc noundef ptr @_ZNK5clang4ento12ProgramState3getIN12_GLOBAL__N_114NullabilityMapEEENS0_17ProgramStateTraitIT_E11lookup_typeENS7_8key_typeE(ptr noundef nonnull align 8 dereferenceable(48) %0, ptr noundef readnone %1) unnamed_addr #0 align 2 {
  %3 = tail call noundef ptr @_ZNK5clang4ento12ProgramState7FindGDMEPv(ptr noundef nonnull align 8 dereferenceable(48) %0, ptr noundef nonnull @_ZZN5clang4ento17ProgramStateTraitIN12_GLOBAL__N_114NullabilityMapEE8GDMIndexEvE5Index) #22
  %.not.i = icmp eq ptr %3, null
  br i1 %.not.i, label %_ZN4llvm12ImmutableMapIPKN5clang4ento9MemRegionEN12_GLOBAL__N_116NullabilityStateENS_16ImutKeyValueInfoIS5_S7_EEED2Ev.exit, label %4

4:                                                ; preds = %2
  %5 = load ptr, ptr %3, align 8, !noalias !57
  %.not.i.i.i.i = icmp eq ptr %5, null
  br i1 %.not.i.i.i.i, label %_ZN4llvm12ImmutableMapIPKN5clang4ento9MemRegionEN12_GLOBAL__N_116NullabilityStateENS_16ImutKeyValueInfoIS5_S7_EEED2Ev.exit, label %_ZN5clang4ento24ProgramStatePartialTraitIN4llvm12ImmutableMapIPKNS0_9MemRegionEN12_GLOBAL__N_116NullabilityStateENS2_16ImutKeyValueInfoIS6_S8_EEEEvE8MakeDataEPKPv.exit

_ZN5clang4ento24ProgramStatePartialTraitIN4llvm12ImmutableMapIPKNS0_9MemRegionEN12_GLOBAL__N_116NullabilityStateENS2_16ImutKeyValueInfoIS6_S8_EEEEvE8MakeDataEPKPv.exit: ; preds = %4
  %6 = getelementptr inbounds nuw i8, ptr %5, i64 76
  %7 = load i32, ptr %6, align 4, !noalias !57
  %8 = add i32 %7, 1
  store i32 %8, ptr %6, align 4, !noalias !57
  br label %.preheader.i.i

.preheader.i.i:                                   ; preds = %_ZN5clang4ento24ProgramStatePartialTraitIN4llvm12ImmutableMapIPKNS0_9MemRegionEN12_GLOBAL__N_116NullabilityStateENS2_16ImutKeyValueInfoIS6_S8_EEEEvE8MakeDataEPKPv.exit, %11
  %.0111.i.i.i = phi ptr [ %.1.i.i.i, %11 ], [ %5, %_ZN5clang4ento24ProgramStatePartialTraitIN4llvm12ImmutableMapIPKNS0_9MemRegionEN12_GLOBAL__N_116NullabilityStateENS2_16ImutKeyValueInfoIS6_S8_EEEEvE8MakeDataEPKPv.exit ]
  %9 = getelementptr inbounds nuw i8, ptr %.0111.i.i.i, i64 48
  %.val13.i.i.i = load ptr, ptr %9, align 8
  %10 = icmp eq ptr %1, %.val13.i.i.i
  br i1 %10, label %_ZN4llvm11ImutAVLTreeINS_16ImutKeyValueInfoIPKN5clang4ento9MemRegionEN12_GLOBAL__N_116NullabilityStateEEEE4findERKS6_.exit.i.i, label %11

11:                                               ; preds = %.preheader.i.i
  %12 = icmp ult ptr %1, %.val13.i.i.i
  %.1.in.v.i.i.i = select i1 %12, i64 8, i64 16
  %.1.in.i.i.i = getelementptr i8, ptr %.0111.i.i.i, i64 %.1.in.v.i.i.i
  %.1.i.i.i = load ptr, ptr %.1.in.i.i.i, align 8
  %.not.i.i.i = icmp eq ptr %.1.i.i.i, null
  br i1 %.not.i.i.i, label %.loopexit, label %.preheader.i.i, !llvm.loop !50

_ZN4llvm11ImutAVLTreeINS_16ImutKeyValueInfoIPKN5clang4ento9MemRegionEN12_GLOBAL__N_116NullabilityStateEEEE4findERKS6_.exit.i.i: ; preds = %.preheader.i.i
  %13 = getelementptr inbounds nuw i8, ptr %.0111.i.i.i, i64 56
  br label %.loopexit

.loopexit:                                        ; preds = %11, %_ZN4llvm11ImutAVLTreeINS_16ImutKeyValueInfoIPKN5clang4ento9MemRegionEN12_GLOBAL__N_116NullabilityStateEEEE4findERKS6_.exit.i.i
  %.0.i.i.ph = phi ptr [ %13, %_ZN4llvm11ImutAVLTreeINS_16ImutKeyValueInfoIPKN5clang4ento9MemRegionEN12_GLOBAL__N_116NullabilityStateEEEE4findERKS6_.exit.i.i ], [ null, %11 ]
  store i32 %7, ptr %6, align 4
  %14 = icmp eq i32 %7, 0
  br i1 %14, label %15, label %_ZN4llvm12ImmutableMapIPKN5clang4ento9MemRegionEN12_GLOBAL__N_116NullabilityStateENS_16ImutKeyValueInfoIS5_S7_EEED2Ev.exit

15:                                               ; preds = %.loopexit
  tail call fastcc void @_ZN4llvm11ImutAVLTreeINS_16ImutKeyValueInfoIPKN5clang4ento9MemRegionEN12_GLOBAL__N_116NullabilityStateEEEE7destroyEv(ptr noundef nonnull align 8 dereferenceable(80) %5)
  br label %_ZN4llvm12ImmutableMapIPKN5clang4ento9MemRegionEN12_GLOBAL__N_116NullabilityStateENS_16ImutKeyValueInfoIS5_S7_EEED2Ev.exit

_ZN4llvm12ImmutableMapIPKN5clang4ento9MemRegionEN12_GLOBAL__N_116NullabilityStateENS_16ImutKeyValueInfoIS5_S7_EEED2Ev.exit: ; preds = %2, %4, %.loopexit, %15
  %.0.i.i14 = phi ptr [ %.0.i.i.ph, %.loopexit ], [ %.0.i.i.ph, %15 ], [ null, %4 ], [ null, %2 ]
  ret ptr %.0.i.i14
}